target datalayout = "e-m:e-p270:32:32-p271:32:32-p272:64:64-i64:64-i128:128-f80:128-n8:16:32:64-S128"
target triple = "x86_64-pc-linux-gnu"

%struct.Bdc_Isf_t_ = type { i32, i32, ptr, ptr }
%struct.Bdc_Man_t_ = type { ptr, i32, i32, i32, i32, ptr, i32, i32, i32, ptr, ptr, i32, ptr, ptr, ptr, ptr, ptr, ptr, ptr, %struct.Bdc_Isf_t_, ptr, %struct.Bdc_Isf_t_, ptr, %struct.Bdc_Isf_t_, ptr, %struct.Bdc_Isf_t_, ptr, i32, i32, i32, i32, i32, i32, i32, i64, i64, i64, i64, i64 }
%struct.Bdc_Fun_t_ = type { i32, ptr, ptr, i32, ptr, ptr, %union.anon }
%union.anon = type { ptr }

; Function Attrs: inlinehint nounwind uwtable
define internal i32 @Kit_TruthIsDisjoint(ptr noundef %0, ptr noundef %1, i32 noundef %2) #1 {
  %4 = alloca i32, align 4
  %5 = alloca ptr, align 8
  %6 = alloca ptr, align 8
  %7 = alloca i32, align 4
  %8 = alloca i32, align 4
  %9 = alloca i32, align 4
  store ptr %0, ptr %5, align 8, !tbaa !10
  store ptr %1, ptr %6, align 8, !tbaa !10
  store i32 %2, ptr %7, align 4, !tbaa !24
  call void @llvm.lifetime.start.p0(i64 4, ptr %8) #5
  %10 = load i32, ptr %7, align 4, !tbaa !24
  %11 = call i32 @Kit_TruthWordNum(i32 noundef %10)
  %12 = sub nsw i32 %11, 1
  store i32 %12, ptr %8, align 4, !tbaa !24
  br label %13

13:                                               ; preds = %31, %3
  %14 = load i32, ptr %8, align 4, !tbaa !24
  %15 = icmp sge i32 %14, 0
  br i1 %15, label %16, label %34

16:                                               ; preds = %13
  %17 = load ptr, ptr %5, align 8, !tbaa !10
  %18 = load i32, ptr %8, align 4, !tbaa !24
  %19 = sext i32 %18 to i64
  %20 = getelementptr inbounds i32, ptr %17, i64 %19
  %21 = load i32, ptr %20, align 4, !tbaa !24
  %22 = load ptr, ptr %6, align 8, !tbaa !10
  %23 = load i32, ptr %8, align 4, !tbaa !24
  %24 = sext i32 %23 to i64
  %25 = getelementptr inbounds i32, ptr %22, i64 %24
  %26 = load i32, ptr %25, align 4, !tbaa !24
  %27 = and i32 %21, %26
  %28 = icmp ne i32 %27, 0
  br i1 %28, label %29, label %30

29:                                               ; preds = %16
  store i32 0, ptr %4, align 4
  store i32 1, ptr %9, align 4
  br label %35

30:                                               ; preds = %16
  br label %31

31:                                               ; preds = %30
  %32 = load i32, ptr %8, align 4, !tbaa !24
  %33 = add nsw i32 %32, -1
  store i32 %33, ptr %8, align 4, !tbaa !24
  br label %13, !llvm.loop !27

34:                                               ; preds = %13
  store i32 1, ptr %4, align 4
  store i32 1, ptr %9, align 4
  br label %35

35:                                               ; preds = %34, %29
  call void @llvm.lifetime.end.p0(i64 4, ptr %8) #5
  %36 = load i32, ptr %4, align 4
  ret i32 %36
}

; Function Attrs: inlinehint nounwind uwtable
define internal i32 @Kit_TruthIsImply(ptr noundef %0, ptr noundef %1, i32 noundef %2) #1 {
  %4 = alloca i32, align 4
  %5 = alloca ptr, align 8
  %6 = alloca ptr, align 8
  %7 = alloca i32, align 4
  %8 = alloca i32, align 4
  %9 = alloca i32, align 4
  store ptr %0, ptr %5, align 8, !tbaa !10
  store ptr %1, ptr %6, align 8, !tbaa !10
  store i32 %2, ptr %7, align 4, !tbaa !24
  call void @llvm.lifetime.start.p0(i64 4, ptr %8) #5
  %10 = load i32, ptr %7, align 4, !tbaa !24
  %11 = call i32 @Kit_TruthWordNum(i32 noundef %10)
  %12 = sub nsw i32 %11, 1
  store i32 %12, ptr %8, align 4, !tbaa !24
  br label %13

13:                                               ; preds = %32, %3
  %14 = load i32, ptr %8, align 4, !tbaa !24
  %15 = icmp sge i32 %14, 0
  br i1 %15, label %16, label %35

16:                                               ; preds = %13
  %17 = load ptr, ptr %5, align 8, !tbaa !10
  %18 = load i32, ptr %8, align 4, !tbaa !24
  %19 = sext i32 %18 to i64
  %20 = getelementptr inbounds i32, ptr %17, i64 %19
  %21 = load i32, ptr %20, align 4, !tbaa !24
  %22 = load ptr, ptr %6, align 8, !tbaa !10
  %23 = load i32, ptr %8, align 4, !tbaa !24
  %24 = sext i32 %23 to i64
  %25 = getelementptr inbounds i32, ptr %22, i64 %24
  %26 = load i32, ptr %25, align 4, !tbaa !24
  %27 = xor i32 %26, -1
  %28 = and i32 %21, %27
  %29 = icmp ne i32 %28, 0
  br i1 %29, label %30, label %31

30:                                               ; preds = %16
  store i32 0, ptr %4, align 4
  store i32 1, ptr %9, align 4
  br label %36

31:                                               ; preds = %16
  br label %32

32:                                               ; preds = %31
  %33 = load i32, ptr %8, align 4, !tbaa !24
  %34 = add nsw i32 %33, -1
  store i32 %34, ptr %8, align 4, !tbaa !24
  br label %13, !llvm.loop !25

35:                                               ; preds = %13
  store i32 1, ptr %4, align 4
  store i32 1, ptr %9, align 4
  br label %36

36:                                               ; preds = %35, %30
  call void @llvm.lifetime.end.p0(i64 4, ptr %8) #5
  %37 = load i32, ptr %4, align 4
  ret i32 %37
}

; Function Attrs: inlinehint nounwind uwtable
define internal i32 @Kit_TruthWordNum(i32 noundef %0) #1 {
  %2 = alloca i32, align 4
  store i32 %0, ptr %2, align 4, !tbaa !24
  %3 = load i32, ptr %2, align 4, !tbaa !24
  %4 = icmp sle i32 %3, 5
  br i1 %4, label %5, label %6

5:                                                ; preds = %1
  br label %10

6:                                                ; preds = %1
  %7 = load i32, ptr %2, align 4, !tbaa !24
  %8 = sub nsw i32 %7, 5
  %9 = shl i32 1, %8
  br label %10

10:                                               ; preds = %6, %5
  %11 = phi i32 [ 1, %5 ], [ %9, %6 ]
  ret i32 %11
}

; Function Attrs: inlinehint nounwind uwtable
define internal void @Bdc_IsfNot(ptr noundef %0) #1 {
  %2 = alloca ptr, align 8
  %3 = alloca ptr, align 8
  store ptr %0, ptr %2, align 8, !tbaa !8
  call void @llvm.lifetime.start.p0(i64 8, ptr %3) #5
  %4 = load ptr, ptr %2, align 8, !tbaa !8
  %5 = getelementptr inbounds nuw %struct.Bdc_Isf_t_, ptr %4, i32 0, i32 2
  %6 = load ptr, ptr %5, align 8, !tbaa !12
  store ptr %6, ptr %3, align 8, !tbaa !10
  %7 = load ptr, ptr %2, align 8, !tbaa !8
  %8 = getelementptr inbounds nuw %struct.Bdc_Isf_t_, ptr %7, i32 0, i32 3
  %9 = load ptr, ptr %8, align 8, !tbaa !23
  %10 = load ptr, ptr %2, align 8, !tbaa !8
  %11 = getelementptr inbounds nuw %struct.Bdc_Isf_t_, ptr %10, i32 0, i32 2
  store ptr %9, ptr %11, align 8, !tbaa !12
  %12 = load ptr, ptr %3, align 8, !tbaa !10
  %13 = load ptr, ptr %2, align 8, !tbaa !8
  %14 = getelementptr inbounds nuw %struct.Bdc_Isf_t_, ptr %13, i32 0, i32 3
  store ptr %12, ptr %14, align 8, !tbaa !23
  call void @llvm.lifetime.end.p0(i64 8, ptr %3) #5
  ret void
}

; Function Attrs: nounwind uwtable
define i32 @Bdc_TableCheckContainment(ptr noundef %0, ptr noundef %1, ptr noundef %2) #0 {
  %4 = alloca ptr, align 8
  %5 = alloca ptr, align 8
  %6 = alloca ptr, align 8
  store ptr %0, ptr %4, align 8, !tbaa !3
  store ptr %1, ptr %5, align 8, !tbaa !8
  store ptr %2, ptr %6, align 8, !tbaa !10
  %7 = load ptr, ptr %5, align 8, !tbaa !8
  %8 = getelementptr inbounds nuw %struct.Bdc_Isf_t_, ptr %7, i32 0, i32 2
  %9 = load ptr, ptr %8, align 8, !tbaa !12
  %10 = load ptr, ptr %6, align 8, !tbaa !10
  %11 = load ptr, ptr %4, align 8, !tbaa !3
  %12 = getelementptr inbounds nuw %struct.Bdc_Man_t_, ptr %11, i32 0, i32 1
  %13 = load i32, ptr %12, align 8, !tbaa !15
  %14 = call i32 @Kit_TruthIsImply(ptr noundef %9, ptr noundef %10, i32 noundef %13)
  %15 = icmp ne i32 %14, 0
  br i1 %15, label %16, label %26

16:                                               ; preds = %3
  %17 = load ptr, ptr %6, align 8, !tbaa !10
  %18 = load ptr, ptr %5, align 8, !tbaa !8
  %19 = getelementptr inbounds nuw %struct.Bdc_Isf_t_, ptr %18, i32 0, i32 3
  %20 = load ptr, ptr %19, align 8, !tbaa !23
  %21 = load ptr, ptr %4, align 8, !tbaa !3
  %22 = getelementptr inbounds nuw %struct.Bdc_Man_t_, ptr %21, i32 0, i32 1
  %23 = load i32, ptr %22, align 8, !tbaa !15
  %24 = call i32 @Kit_TruthIsDisjoint(ptr noundef %17, ptr noundef %20, i32 noundef %23)
  %25 = icmp ne i32 %24, 0
  br label %26

26:                                               ; preds = %16, %3
  %27 = phi i1 [ false, %3 ], [ %25, %16 ]
  %28 = zext i1 %27 to i32
  ret i32 %28
}

; Function Attrs: inlinehint nounwind uwtable
define internal ptr @Bdc_Not(ptr noundef %0) #1 {
  %2 = alloca ptr, align 8
  store ptr %0, ptr %2, align 8, !tbaa !31
  %3 = load ptr, ptr %2, align 8, !tbaa !31
  %4 = ptrtoint ptr %3 to i64
  %5 = xor i64 %4, 1
  %6 = inttoptr i64 %5 to ptr
  ret ptr %6
}

; Function Attrs: inlinehint nounwind uwtable
define internal i32 @Kit_TruthIsConst1(ptr noundef %0, i32 noundef %1) #1 {
  %3 = alloca i32, align 4
  %4 = alloca ptr, align 8
  %5 = alloca i32, align 4
  %6 = alloca i32, align 4
  %7 = alloca i32, align 4
  store ptr %0, ptr %4, align 8, !tbaa !10
  store i32 %1, ptr %5, align 4, !tbaa !24
  call void @llvm.lifetime.start.p0(i64 4, ptr %6) #5
  %8 = load i32, ptr %5, align 4, !tbaa !24
  %9 = call i32 @Kit_TruthWordNum(i32 noundef %8)
  %10 = sub nsw i32 %9, 1
  store i32 %10, ptr %6, align 4, !tbaa !24
  br label %11

11:                                               ; preds = %23, %2
  %12 = load i32, ptr %6, align 4, !tbaa !24
  %13 = icmp sge i32 %12, 0
  br i1 %13, label %14, label %26

14:                                               ; preds = %11
  %15 = load ptr, ptr %4, align 8, !tbaa !10
  %16 = load i32, ptr %6, align 4, !tbaa !24
  %17 = sext i32 %16 to i64
  %18 = getelementptr inbounds i32, ptr %15, i64 %17
  %19 = load i32, ptr %18, align 4, !tbaa !24
  %20 = icmp ne i32 %19, -1
  br i1 %20, label %21, label %22

21:                                               ; preds = %14
  store i32 0, ptr %3, align 4
  store i32 1, ptr %7, align 4
  br label %27

22:                                               ; preds = %14
  br label %23

23:                                               ; preds = %22
  %24 = load i32, ptr %6, align 4, !tbaa !24
  %25 = add nsw i32 %24, -1
  store i32 %25, ptr %6, align 4, !tbaa !24
  br label %11, !llvm.loop !37

26:                                               ; preds = %11
  store i32 1, ptr %3, align 4
  store i32 1, ptr %7, align 4
  br label %27

27:                                               ; preds = %26, %21
  call void @llvm.lifetime.end.p0(i64 4, ptr %6) #5
  %28 = load i32, ptr %3, align 4
  ret i32 %28
}

; Function Attrs: inlinehint nounwind uwtable
define internal i32 @Kit_WordCountOnes(i32 noundef %0) #1 {
  %2 = alloca i32, align 4
  store i32 %0, ptr %2, align 4, !tbaa !24
  %3 = load i32, ptr %2, align 4, !tbaa !24
  %4 = and i32 %3, 1431655765
  %5 = load i32, ptr %2, align 4, !tbaa !24
  %6 = lshr i32 %5, 1
  %7 = and i32 %6, 1431655765
  %8 = add i32 %4, %7
  store i32 %8, ptr %2, align 4, !tbaa !24
  %9 = load i32, ptr %2, align 4, !tbaa !24
  %10 = and i32 %9, 858993459
  %11 = load i32, ptr %2, align 4, !tbaa !24
  %12 = lshr i32 %11, 2
  %13 = and i32 %12, 858993459
  %14 = add i32 %10, %13
  store i32 %14, ptr %2, align 4, !tbaa !24
  %15 = load i32, ptr %2, align 4, !tbaa !24
  %16 = and i32 %15, 252645135
  %17 = load i32, ptr %2, align 4, !tbaa !24
  %18 = lshr i32 %17, 4
  %19 = and i32 %18, 252645135
  %20 = add i32 %16, %19
  store i32 %20, ptr %2, align 4, !tbaa !24
  %21 = load i32, ptr %2, align 4, !tbaa !24
  %22 = and i32 %21, 16711935
  %23 = load i32, ptr %2, align 4, !tbaa !24
  %24 = lshr i32 %23, 8
  %25 = and i32 %24, 16711935
  %26 = add i32 %22, %25
  store i32 %26, ptr %2, align 4, !tbaa !24
  %27 = load i32, ptr %2, align 4, !tbaa !24
  %28 = and i32 %27, 65535
  %29 = load i32, ptr %2, align 4, !tbaa !24
  %30 = lshr i32 %29, 16
  %31 = add i32 %28, %30
  ret i32 %31
}

; Function Attrs: nounwind uwtable
define ptr @Bdc_TableLookup(ptr noundef %0, ptr noundef %1) #0 {
  %3 = alloca ptr, align 8
  %4 = alloca ptr, align 8
  %5 = alloca ptr, align 8
  %6 = alloca i32, align 4
  %7 = alloca ptr, align 8
  %8 = alloca i32, align 4
  store ptr %0, ptr %4, align 8, !tbaa !3
  store ptr %1, ptr %5, align 8, !tbaa !8
  call void @llvm.lifetime.start.p0(i64 4, ptr %6) #5
  store i32 0, ptr %6, align 4, !tbaa !24
  call void @llvm.lifetime.start.p0(i64 8, ptr %7) #5
  %9 = load i32, ptr %6, align 4, !tbaa !24
  %10 = icmp ne i32 %9, 0
  br i1 %10, label %11, label %18

11:                                               ; preds = %2
  %12 = load ptr, ptr %5, align 8, !tbaa !8
  %13 = getelementptr inbounds nuw %struct.Bdc_Isf_t_, ptr %12, i32 0, i32 0
  %14 = load i32, ptr %13, align 8, !tbaa !28
  %15 = call i32 @Kit_WordCountOnes(i32 noundef %14)
  %16 = icmp sgt i32 %15, 1
  br i1 %16, label %17, label %18

17:                                               ; preds = %11
  store ptr null, ptr %3, align 8
  store i32 1, ptr %8, align 4
  br label %102

18:                                               ; preds = %11, %2
  %19 = load ptr, ptr %5, align 8, !tbaa !8
  %20 = getelementptr inbounds nuw %struct.Bdc_Isf_t_, ptr %19, i32 0, i32 0
  %21 = load i32, ptr %20, align 8, !tbaa !28
  %22 = icmp eq i32 %21, 0
  br i1 %22, label %23, label %41

23:                                               ; preds = %18
  %24 = load ptr, ptr %5, align 8, !tbaa !8
  %25 = getelementptr inbounds nuw %struct.Bdc_Isf_t_, ptr %24, i32 0, i32 2
  %26 = load ptr, ptr %25, align 8, !tbaa !12
  %27 = load ptr, ptr %4, align 8, !tbaa !3
  %28 = getelementptr inbounds nuw %struct.Bdc_Man_t_, ptr %27, i32 0, i32 1
  %29 = load i32, ptr %28, align 8, !tbaa !15
  %30 = call i32 @Kit_TruthIsConst1(ptr noundef %26, i32 noundef %29)
  %31 = icmp ne i32 %30, 0
  br i1 %31, label %32, label %36

32:                                               ; preds = %23
  %33 = load ptr, ptr %4, align 8, !tbaa !3
  %34 = getelementptr inbounds nuw %struct.Bdc_Man_t_, ptr %33, i32 0, i32 5
  %35 = load ptr, ptr %34, align 8, !tbaa !29
  store ptr %35, ptr %3, align 8
  store i32 1, ptr %8, align 4
  br label %102

36:                                               ; preds = %23
  %37 = load ptr, ptr %4, align 8, !tbaa !3
  %38 = getelementptr inbounds nuw %struct.Bdc_Man_t_, ptr %37, i32 0, i32 5
  %39 = load ptr, ptr %38, align 8, !tbaa !29
  %40 = call ptr @Bdc_Not(ptr noundef %39)
  store ptr %40, ptr %3, align 8
  store i32 1, ptr %8, align 4
  br label %102

41:                                               ; preds = %18
  %42 = load ptr, ptr %4, align 8, !tbaa !3
  %43 = getelementptr inbounds nuw %struct.Bdc_Man_t_, ptr %42, i32 0, i32 10
  %44 = load ptr, ptr %43, align 8, !tbaa !30
  %45 = load ptr, ptr %5, align 8, !tbaa !8
  %46 = getelementptr inbounds nuw %struct.Bdc_Isf_t_, ptr %45, i32 0, i32 0
  %47 = load i32, ptr %46, align 8, !tbaa !28
  %48 = zext i32 %47 to i64
  %49 = getelementptr inbounds nuw ptr, ptr %44, i64 %48
  %50 = load ptr, ptr %49, align 8, !tbaa !31
  store ptr %50, ptr %7, align 8, !tbaa !31
  br label %51

51:                                               ; preds = %65, %41
  %52 = load ptr, ptr %7, align 8, !tbaa !31
  %53 = icmp ne ptr %52, null
  br i1 %53, label %54, label %69

54:                                               ; preds = %51
  %55 = load ptr, ptr %4, align 8, !tbaa !3
  %56 = load ptr, ptr %5, align 8, !tbaa !8
  %57 = load ptr, ptr %7, align 8, !tbaa !31
  %58 = getelementptr inbounds nuw %struct.Bdc_Fun_t_, ptr %57, i32 0, i32 4
  %59 = load ptr, ptr %58, align 8, !tbaa !32
  %60 = call i32 @Bdc_TableCheckContainment(ptr noundef %55, ptr noundef %56, ptr noundef %59)
  %61 = icmp ne i32 %60, 0
  br i1 %61, label %62, label %64

62:                                               ; preds = %54
  %63 = load ptr, ptr %7, align 8, !tbaa !31
  store ptr %63, ptr %3, align 8
  store i32 1, ptr %8, align 4
  br label %102

64:                                               ; preds = %54
  br label %65

65:                                               ; preds = %64
  %66 = load ptr, ptr %7, align 8, !tbaa !31
  %67 = getelementptr inbounds nuw %struct.Bdc_Fun_t_, ptr %66, i32 0, i32 5
  %68 = load ptr, ptr %67, align 8, !tbaa !34
  store ptr %68, ptr %7, align 8, !tbaa !31
  br label %51, !llvm.loop !35

69:                                               ; preds = %51
  %70 = load ptr, ptr %5, align 8, !tbaa !8
  call void @Bdc_IsfNot(ptr noundef %70)
  %71 = load ptr, ptr %4, align 8, !tbaa !3
  %72 = getelementptr inbounds nuw %struct.Bdc_Man_t_, ptr %71, i32 0, i32 10
  %73 = load ptr, ptr %72, align 8, !tbaa !30
  %74 = load ptr, ptr %5, align 8, !tbaa !8
  %75 = getelementptr inbounds nuw %struct.Bdc_Isf_t_, ptr %74, i32 0, i32 0
  %76 = load i32, ptr %75, align 8, !tbaa !28
  %77 = zext i32 %76 to i64
  %78 = getelementptr inbounds nuw ptr, ptr %73, i64 %77
  %79 = load ptr, ptr %78, align 8, !tbaa !31
  store ptr %79, ptr %7, align 8, !tbaa !31
  br label %80

80:                                               ; preds = %96, %69
  %81 = load ptr, ptr %7, align 8, !tbaa !31
  %82 = icmp ne ptr %81, null
  br i1 %82, label %83, label %100

83:                                               ; preds = %80
  %84 = load ptr, ptr %4, align 8, !tbaa !3
  %85 = load ptr, ptr %5, align 8, !tbaa !8
  %86 = load ptr, ptr %7, align 8, !tbaa !31
  %87 = getelementptr inbounds nuw %struct.Bdc_Fun_t_, ptr %86, i32 0, i32 4
  %88 = load ptr, ptr %87, align 8, !tbaa !32
  %89 = call i32 @Bdc_TableCheckContainment(ptr noundef %84, ptr noundef %85, ptr noundef %88)
  %90 = icmp ne i32 %89, 0
  br i1 %90, label %91, label %95

91:                                               ; preds = %83
  %92 = load ptr, ptr %5, align 8, !tbaa !8
  call void @Bdc_IsfNot(ptr noundef %92)
  %93 = load ptr, ptr %7, align 8, !tbaa !31
  %94 = call ptr @Bdc_Not(ptr noundef %93)
  store ptr %94, ptr %3, align 8
  store i32 1, ptr %8, align 4
  br label %102

95:                                               ; preds = %83
  br label %96

96:                                               ; preds = %95
  %97 = load ptr, ptr %7, align 8, !tbaa !31
  %98 = getelementptr inbounds nuw %struct.Bdc_Fun_t_, ptr %97, i32 0, i32 5
  %99 = load ptr, ptr %98, align 8, !tbaa !34
  store ptr %99, ptr %7, align 8, !tbaa !31
  br label %80, !llvm.loop !36

100:                                              ; preds = %80
  %101 = load ptr, ptr %5, align 8, !tbaa !8
  call void @Bdc_IsfNot(ptr noundef %101)
  store ptr null, ptr %3, align 8
  store i32 1, ptr %8, align 4
  br label %102

102:                                              ; preds = %100, %91, %62, %36, %32, %17
  call void @llvm.lifetime.end.p0(i64 8, ptr %7) #5
  call void @llvm.lifetime.end.p0(i64 4, ptr %6) #5
  %103 = load ptr, ptr %3, align 8
  ret ptr %103
}