; Function Attrs: nofree norecurse nosync nounwind memory(readwrite, inaccessiblemem: none) uwtable
define ptr @Bdc_TableLookup(ptr noundef readonly captures(none) %0, ptr noundef captures(none) %1) local_unnamed_addr #1 {
  %3 = load i32, ptr %1, align 8, !tbaa !24
  %4 = icmp eq i32 %3, 0
  br i1 %4, label %5, label %28

5:                                                ; preds = %2
  %6 = getelementptr inbounds nuw i8, ptr %1, i64 8
  %7 = load ptr, ptr %6, align 8, !tbaa !3
  %8 = getelementptr inbounds nuw i8, ptr %0, i64 8
  %9 = load i32, ptr %8, align 8, !tbaa !10
  %10 = icmp slt i32 %9, 6
  %11 = add nsw i32 %9, -5
  %12 = shl nuw i32 1, %11
  %spec.select.i = select i1 %10, i32 1, i32 %12
  %13 = zext i32 %spec.select.i to i64
  br label %select.unfold.i

select.unfold.i:                                  ; preds = %16, %5
  %indvars.iv.i = phi i64 [ %13, %5 ], [ %17, %16 ]
  %14 = trunc nuw i64 %indvars.iv.i to i32
  %15 = icmp sgt i32 %14, 0
  br i1 %15, label %16, label %Kit_TruthIsConst1.exit

16:                                               ; preds = %select.unfold.i
  %17 = add nsw i64 %indvars.iv.i, -1
  %18 = getelementptr inbounds nuw i32, ptr %7, i64 %17
  %19 = load i32, ptr %18, align 4, !tbaa !19
  %.not.i = icmp eq i32 %19, -1
  br i1 %.not.i, label %select.unfold.i, label %22, !llvm.loop !25

Kit_TruthIsConst1.exit:                           ; preds = %select.unfold.i
  %20 = getelementptr inbounds nuw i8, ptr %0, i64 24
  %21 = load ptr, ptr %20, align 8, !tbaa !26
  br label %Bdc_TableCheckContainment.exit

22:                                               ; preds = %16
  %23 = getelementptr inbounds nuw i8, ptr %0, i64 24
  %24 = load ptr, ptr %23, align 8, !tbaa !26
  %25 = ptrtoint ptr %24 to i64
  %26 = xor i64 %25, 1
  %27 = inttoptr i64 %26 to ptr
  br label %Bdc_TableCheckContainment.exit

28:                                               ; preds = %2
  %29 = getelementptr inbounds nuw i8, ptr %0, i64 56
  %30 = load ptr, ptr %29, align 8, !tbaa !27
  %31 = zext i32 %3 to i64
  %32 = getelementptr inbounds nuw ptr, ptr %30, i64 %31
  %.050 = load ptr, ptr %32, align 8, !tbaa !28
  %.not51 = icmp eq ptr %.050, null
  %.phi.trans.insert = getelementptr inbounds nuw i8, ptr %1, i64 8
  %.pre = load ptr, ptr %.phi.trans.insert, align 8, !tbaa !3
  br i1 %.not51, label %._crit_edge.thread, label %.lr.ph

._crit_edge.thread:                               ; preds = %28
  %33 = getelementptr inbounds nuw i8, ptr %1, i64 8
  %34 = getelementptr inbounds nuw i8, ptr %1, i64 16
  %35 = load ptr, ptr %34, align 8, !tbaa !22
  br label %._crit_edge58

.lr.ph:                                           ; preds = %28
  %36 = getelementptr inbounds nuw i8, ptr %0, i64 8
  %37 = load i32, ptr %36, align 8, !tbaa !10
  %38 = icmp slt i32 %37, 6
  %39 = add nsw i32 %37, -5
  %40 = shl nuw i32 1, %39
  %spec.select.i.i = select i1 %38, i32 1, i32 %40
  %41 = zext i32 %spec.select.i.i to i64
  %42 = getelementptr inbounds nuw i8, ptr %1, i64 16
  br label %43

43:                                               ; preds = %.lr.ph, %.loopexit46
  %.052 = phi ptr [ %.050, %.lr.ph ], [ %.0, %.loopexit46 ]
  %44 = getelementptr inbounds nuw i8, ptr %.052, i64 32
  %45 = load ptr, ptr %44, align 8, !tbaa !29
  br label %select.unfold.i.i

select.unfold.i.i:                                ; preds = %48, %43
  %indvars.iv.i.i = phi i64 [ %41, %43 ], [ %49, %48 ]
  %46 = trunc nuw i64 %indvars.iv.i.i to i32
  %47 = icmp sgt i32 %46, 0
  br i1 %47, label %48, label %Kit_TruthIsImply.exit.i

48:                                               ; preds = %select.unfold.i.i
  %49 = add nsw i64 %indvars.iv.i.i, -1
  %50 = getelementptr inbounds nuw i32, ptr %.pre, i64 %49
  %51 = load i32, ptr %50, align 4, !tbaa !19
  %52 = getelementptr inbounds nuw i32, ptr %45, i64 %49
  %53 = load i32, ptr %52, align 4, !tbaa !19
  %54 = xor i32 %53, -1
  %55 = and i32 %51, %54
  %.not.i.i = icmp eq i32 %55, 0
  br i1 %.not.i.i, label %select.unfold.i.i, label %.loopexit46, !llvm.loop !20

Kit_TruthIsImply.exit.i:                          ; preds = %select.unfold.i.i
  %56 = load ptr, ptr %42, align 8, !tbaa !22
  br label %select.unfold.i7.i

select.unfold.i7.i:                               ; preds = %59, %Kit_TruthIsImply.exit.i
  %indvars.iv.i8.i = phi i64 [ %41, %Kit_TruthIsImply.exit.i ], [ %60, %59 ]
  %57 = trunc nuw i64 %indvars.iv.i8.i to i32
  %58 = icmp sgt i32 %57, 0
  br i1 %58, label %59, label %Bdc_TableCheckContainment.exit

59:                                               ; preds = %select.unfold.i7.i
  %60 = add nsw i64 %indvars.iv.i8.i, -1
  %61 = getelementptr inbounds nuw i32, ptr %45, i64 %60
  %62 = load i32, ptr %61, align 4, !tbaa !19
  %63 = getelementptr inbounds nuw i32, ptr %56, i64 %60
  %64 = load i32, ptr %63, align 4, !tbaa !19
  %65 = and i32 %64, %62
  %.not.i10.i = icmp eq i32 %65, 0
  br i1 %.not.i10.i, label %select.unfold.i7.i, label %.loopexit46, !llvm.loop !23

.loopexit46:                                      ; preds = %48, %59
  %66 = getelementptr inbounds nuw i8, ptr %.052, i64 40
  %.0 = load ptr, ptr %66, align 8, !tbaa !28
  %.not = icmp eq ptr %.0, null
  br i1 %.not, label %._crit_edge, label %43, !llvm.loop !31

._crit_edge:                                      ; preds = %.loopexit46
  %67 = getelementptr inbounds nuw i8, ptr %1, i64 8
  %68 = getelementptr inbounds nuw i8, ptr %1, i64 16
  %69 = load ptr, ptr %68, align 8, !tbaa !22
  %70 = getelementptr inbounds nuw i8, ptr %0, i64 8
  %71 = load i32, ptr %70, align 8, !tbaa !10
  %72 = icmp slt i32 %71, 6
  %73 = add nsw i32 %71, -5
  %74 = shl nuw i32 1, %73
  %spec.select.i.i32 = select i1 %72, i32 1, i32 %74
  %75 = zext i32 %spec.select.i.i32 to i64
  br label %76

76:                                               ; preds = %._crit_edge, %.loopexit
  %.155 = phi ptr [ %.050, %._crit_edge ], [ %.1, %.loopexit ]
  %77 = getelementptr inbounds nuw i8, ptr %.155, i64 32
  %78 = load ptr, ptr %77, align 8, !tbaa !29
  br label %select.unfold.i.i33

select.unfold.i.i33:                              ; preds = %81, %76
  %indvars.iv.i.i34 = phi i64 [ %75, %76 ], [ %82, %81 ]
  %79 = trunc nuw i64 %indvars.iv.i.i34 to i32
  %80 = icmp sgt i32 %79, 0
  br i1 %80, label %81, label %select.unfold.i7.i36

81:                                               ; preds = %select.unfold.i.i33
  %82 = add nsw i64 %indvars.iv.i.i34, -1
  %83 = getelementptr inbounds nuw i32, ptr %69, i64 %82
  %84 = load i32, ptr %83, align 4, !tbaa !19
  %85 = getelementptr inbounds nuw i32, ptr %78, i64 %82
  %86 = load i32, ptr %85, align 4, !tbaa !19
  %87 = xor i32 %86, -1
  %88 = and i32 %84, %87
  %.not.i.i39 = icmp eq i32 %88, 0
  br i1 %.not.i.i39, label %select.unfold.i.i33, label %.loopexit, !llvm.loop !20

select.unfold.i7.i36:                             ; preds = %select.unfold.i.i33, %91
  %indvars.iv.i8.i37 = phi i64 [ %92, %91 ], [ %75, %select.unfold.i.i33 ]
  %89 = trunc nuw i64 %indvars.iv.i8.i37 to i32
  %90 = icmp sgt i32 %89, 0
  br i1 %90, label %91, label %Bdc_TableCheckContainment.exit40

91:                                               ; preds = %select.unfold.i7.i36
  %92 = add nsw i64 %indvars.iv.i8.i37, -1
  %93 = getelementptr inbounds nuw i32, ptr %78, i64 %92
  %94 = load i32, ptr %93, align 4, !tbaa !19
  %95 = getelementptr inbounds nuw i32, ptr %.pre, i64 %92
  %96 = load i32, ptr %95, align 4, !tbaa !19
  %97 = and i32 %96, %94
  %.not.i10.i38 = icmp eq i32 %97, 0
  br i1 %.not.i10.i38, label %select.unfold.i7.i36, label %.loopexit, !llvm.loop !23

Bdc_TableCheckContainment.exit40:                 ; preds = %select.unfold.i7.i36
  store ptr %.pre, ptr %67, align 8, !tbaa !3
  %98 = ptrtoint ptr %.155 to i64
  %99 = xor i64 %98, 1
  %100 = inttoptr i64 %99 to ptr
  br label %Bdc_TableCheckContainment.exit

.loopexit:                                        ; preds = %81, %91
  %101 = getelementptr inbounds nuw i8, ptr %.155, i64 40
  %.1 = load ptr, ptr %101, align 8, !tbaa !28
  %.not28 = icmp eq ptr %.1, null
  br i1 %.not28, label %._crit_edge58, label %76, !llvm.loop !32

._crit_edge58:                                    ; preds = %.loopexit, %._crit_edge.thread
  %102 = phi ptr [ %35, %._crit_edge.thread ], [ %69, %.loopexit ]
  %103 = phi ptr [ %34, %._crit_edge.thread ], [ %68, %.loopexit ]
  %104 = phi ptr [ %33, %._crit_edge.thread ], [ %67, %.loopexit ]
  store ptr %.pre, ptr %104, align 8, !tbaa !3
  store ptr %102, ptr %103, align 8, !tbaa !22
  br label %Bdc_TableCheckContainment.exit

Bdc_TableCheckContainment.exit:                   ; preds = %select.unfold.i7.i, %._crit_edge58, %Bdc_TableCheckContainment.exit40, %22, %Kit_TruthIsConst1.exit
  %.026 = phi ptr [ %21, %Kit_TruthIsConst1.exit ], [ %27, %22 ], [ %100, %Bdc_TableCheckContainment.exit40 ], [ null, %._crit_edge58 ], [ %.052, %select.unfold.i7.i ]
  ret ptr %.026
}